; Function Attrs: nounwind sspstrong uwtable
define dso_local void @qemu_input_queue_mtt(ptr noundef %src, i32 noundef %type, i32 noundef %slot, i32 noundef %tracking_id) local_unnamed_addr #0 {
if.end18.i:
  %mtt = alloca %struct.InputMultiTouchEvent, align 8
  %evt = alloca %struct.InputEvent, align 8
  store i32 %type, ptr %mtt, align 8
  %slot2 = getelementptr inbounds nuw i8, ptr %mtt, i64 8
  %conv = sext i32 %slot to i64
  store i64 %conv, ptr %slot2, align 8
  %tracking_id3 = getelementptr inbounds nuw i8, ptr %mtt, i64 16
  %conv4 = sext i32 %tracking_id to i64
  store i64 %conv4, ptr %tracking_id3, align 8
  %axis = getelementptr inbounds nuw i8, ptr %mtt, i64 24
  store i32 0, ptr %axis, align 8
  %value = getelementptr inbounds nuw i8, ptr %mtt, i64 32
  store i64 0, ptr %value, align 8
  store i32 4, ptr %evt, align 8
  %u = getelementptr inbounds nuw i8, ptr %evt, i64 8
  store ptr %mtt, ptr %u, align 8
  %call.i = call zeroext i1 @runstate_is_running() #12
  br i1 %call.i, label %if.end22.i, label %land.lhs.true19.i

land.lhs.true19.i:                                ; preds = %if.end18.i
  %call20.i = call zeroext i1 @runstate_check(i32 noundef 12) #12
  br i1 %call20.i, label %if.end22.i, label %qemu_input_event_send.exit

if.end22.i:                                       ; preds = %land.lhs.true19.i, %if.end18.i
  call void @replay_input_event(ptr noundef %src, ptr noundef nonnull %evt) #12
  br label %qemu_input_event_send.exit

qemu_input_event_send.exit:                       ; preds = %land.lhs.true19.i, %if.end22.i
  ret void
}